; Function Attrs: mustprogress uwtable
define void @_ZNK2cv3Mat8assignToERS0_i(ptr noundef nonnull align 8 dereferenceable(96) %0, ptr noundef nonnull align 8 dereferenceable(96) %1, i32 noundef %2) local_unnamed_addr #1 align 2 personality ptr @__gxx_personality_v0 {
  %4 = alloca %"class.cv::_OutputArray", align 8
  %5 = icmp slt i32 %2, 0
  br i1 %5, label %6, label %8

6:                                                ; preds = %3
  %7 = tail call noundef nonnull align 8 dereferenceable(96) ptr @_ZN2cv3MataSERKS0_(ptr noundef nonnull align 8 dereferenceable(96) %1, ptr noundef nonnull align 8 dereferenceable(96) %0)
  br label %11

8:                                                ; preds = %3
  call void @llvm.lifetime.start.p0(i64 24, ptr nonnull %4) #24
  %9 = getelementptr inbounds nuw i8, ptr %4, i64 8
  %10 = getelementptr inbounds nuw i8, ptr %4, i64 16
  store i64 0, ptr %10, align 8
  store i32 33619968, ptr %4, align 8, !tbaa !81
  store ptr %1, ptr %9, align 8, !tbaa !84
  call void @_ZNK2cv3Mat9convertToERKNS_12_OutputArrayEidd(ptr noundef nonnull align 8 dereferenceable(96) %0, ptr noundef nonnull align 8 dereferenceable(24) %4, i32 noundef %2, double noundef 1.000000e+00, double noundef 0.000000e+00)
  call void @llvm.lifetime.end.p0(i64 24, ptr nonnull %4) #24
  br label %11

11:                                               ; preds = %8, %6
  ret void
}